target datalayout = "e-m:e-p270:32:32-p271:32:32-p272:64:64-i64:64-i128:128-f80:128-n8:16:32:64-S128"
target triple = "x86_64-pc-linux-gnu"

%struct._packet_info = type { ptr, ptr, i32, i32, %struct.nstime_t, %struct.nstime_t, %struct.nstime_t, i8, ptr, ptr, ptr, ptr, %struct._address, %struct._address, %struct._address, %struct._address, %struct._address, %struct._address, i32, ptr, i8, [3 x i8], %struct.anon, i32, i32, i32, i32, ptr, i8, ptr, ptr, i16, i16, i32, i32, i16, i32, i32, ptr, ptr, ptr, i8, i8, i16, i16, i16, i32, i16, i16, ptr, ptr, ptr, ptr, ptr, i32, i32 }
%struct.nstime_t = type { i64, i32 }
%struct._address = type { i32, i32, ptr, ptr }
%struct.anon = type { i8, [3 x i8] }

; Function Attrs: null_pointer_is_valid sspstrong uwtable
define internal i32 @get_xot_pdu_len(ptr noundef %0, ptr noundef %1, i32 noundef %2, ptr noundef %3) #0 {
  %5 = alloca i32, align 4
  %6 = alloca ptr, align 8
  %7 = alloca ptr, align 8
  %8 = alloca i32, align 4
  %9 = alloca ptr, align 8
  %10 = alloca i16, align 2
  %11 = alloca i32, align 4
  %12 = alloca i32, align 4
  store ptr %0, ptr %6, align 8
  store ptr %1, ptr %7, align 8
  store i32 %2, ptr %8, align 4
  store ptr %3, ptr %9, align 8
  call void @llvm.lifetime.start.p0(i64 2, ptr %10) #3
  call void @llvm.lifetime.start.p0(i64 4, ptr %11) #3
  %13 = load ptr, ptr %7, align 8
  %14 = load i32, ptr %8, align 4
  %15 = call i32 @tvb_captured_length_remaining(ptr noundef %13, i32 noundef %14)
  store i32 %15, ptr %11, align 4
  %16 = load i32, ptr %11, align 4
  %17 = icmp slt i32 %16, 4
  br i1 %17, label %18, label %20

18:                                               ; preds = %4
  %19 = load i32, ptr %11, align 4
  store i32 %19, ptr %5, align 4
  store i32 1, ptr %12, align 4
  br label %28

20:                                               ; preds = %4
  %21 = load ptr, ptr %7, align 8
  %22 = load i32, ptr %8, align 4
  %23 = add i32 %22, 2
  %24 = call zeroext i16 @tvb_get_ntohs(ptr noundef %21, i32 noundef %23)
  store i16 %24, ptr %10, align 2
  %25 = load i16, ptr %10, align 2
  %26 = zext i16 %25 to i32
  %27 = add i32 4, %26
  store i32 %27, ptr %5, align 4
  store i32 1, ptr %12, align 4
  br label %28

28:                                               ; preds = %20, %18
  call void @llvm.lifetime.end.p0(i64 4, ptr %11) #3
  call void @llvm.lifetime.end.p0(i64 2, ptr %10) #3
  %29 = load i32, ptr %5, align 4
  ret i32 %29
}

; Function Attrs: null_pointer_is_valid sspstrong uwtable
define internal i32 @get_xot_pdu_len_mult(ptr noundef %0, ptr noundef %1, i32 noundef %2, ptr noundef %3) #0 {
  %5 = alloca i32, align 4
  %6 = alloca ptr, align 8
  %7 = alloca ptr, align 8
  %8 = alloca i32, align 4
  %9 = alloca ptr, align 8
  %10 = alloca i32, align 4
  %11 = alloca i32, align 4
  %12 = alloca i32, align 4
  %13 = alloca i16, align 2
  %14 = alloca i32, align 4
  %15 = alloca i16, align 2
  %16 = alloca i8, align 1
  %17 = alloca i8, align 1
  %18 = alloca i32, align 4
  %19 = alloca i32, align 4
  store ptr %0, ptr %6, align 8
  store ptr %1, ptr %7, align 8
  store i32 %2, ptr %8, align 4
  store ptr %3, ptr %9, align 8
  call void @llvm.lifetime.start.p0(i64 4, ptr %10) #3
  %20 = load i32, ptr %8, align 4
  store i32 %20, ptr %10, align 4
  call void @llvm.lifetime.start.p0(i64 4, ptr %11) #3
  %21 = load i32, ptr %8, align 4
  %22 = add i32 %21, 4
  %23 = add i32 %22, 3
  store i32 %23, ptr %11, align 4
  call void @llvm.lifetime.start.p0(i64 4, ptr %12) #3
  br label %24

24:                                               ; preds = %121, %4
  %25 = load ptr, ptr %7, align 8
  %26 = load i32, ptr %8, align 4
  %27 = call i32 @tvb_captured_length_remaining(ptr noundef %25, i32 noundef %26)
  store i32 %27, ptr %12, align 4
  %28 = icmp sgt i32 %27, 0
  br i1 %28, label %29, label %122

29:                                               ; preds = %24
  call void @llvm.lifetime.start.p0(i64 2, ptr %13) #3
  store i16 0, ptr %13, align 2
  call void @llvm.lifetime.start.p0(i64 4, ptr %14) #3
  call void @llvm.lifetime.start.p0(i64 2, ptr %15) #3
  call void @llvm.lifetime.start.p0(i64 1, ptr %16) #3
  call void @llvm.lifetime.start.p0(i64 1, ptr %17) #3
  call void @llvm.lifetime.start.p0(i64 4, ptr %18) #3
  %30 = load i32, ptr %8, align 4
  %31 = add i32 %30, 4
  store i32 %31, ptr %18, align 4
  %32 = load i32, ptr %18, align 4
  %33 = add i32 %32, 3
  store i32 %33, ptr %11, align 4
  %34 = load i32, ptr %12, align 4
  %35 = icmp slt i32 %34, 4
  br i1 %35, label %36, label %40

36:                                               ; preds = %29
  %37 = load i32, ptr %11, align 4
  %38 = load i32, ptr %10, align 4
  %39 = sub i32 %37, %38
  store i32 %39, ptr %5, align 4
  store i32 1, ptr %19, align 4
  br label %119

40:                                               ; preds = %29
  %41 = load ptr, ptr %6, align 8
  %42 = load ptr, ptr %7, align 8
  %43 = load i32, ptr %8, align 4
  %44 = call i32 @get_xot_pdu_len(ptr noundef %41, ptr noundef %42, i32 noundef %43, ptr noundef null)
  %45 = trunc i32 %44 to i16
  store i16 %45, ptr %13, align 2
  %46 = load i32, ptr %8, align 4
  %47 = load i16, ptr %13, align 2
  %48 = zext i16 %47 to i32
  %49 = add i32 %46, %48
  store i32 %49, ptr %11, align 4
  %50 = load i32, ptr %12, align 4
  %51 = load i16, ptr %13, align 2
  %52 = zext i16 %51 to i32
  %53 = icmp slt i32 %50, %52
  br i1 %53, label %54, label %58

54:                                               ; preds = %40
  %55 = load i32, ptr %11, align 4
  %56 = load i32, ptr %10, align 4
  %57 = sub i32 %55, %56
  store i32 %57, ptr %5, align 4
  store i32 1, ptr %19, align 4
  br label %119

58:                                               ; preds = %40
  %59 = load ptr, ptr %7, align 8
  %60 = load i32, ptr %18, align 4
  %61 = add i32 %60, 0
  %62 = call zeroext i16 @tvb_get_ntohs(ptr noundef %59, i32 noundef %61)
  store i16 %62, ptr %15, align 2
  %63 = load ptr, ptr %7, align 8
  %64 = load i32, ptr %18, align 4
  %65 = add i32 %64, 2
  %66 = call zeroext i8 @tvb_get_uint8(ptr noundef %63, i32 noundef %65)
  store i8 %66, ptr %16, align 1
  %67 = load i32, ptr %8, align 4
  %68 = load i32, ptr %10, align 4
  %69 = icmp eq i32 %67, %68
  br i1 %69, label %70, label %79

70:                                               ; preds = %58
  %71 = load i8, ptr %16, align 1
  %72 = zext i8 %71 to i32
  %73 = and i32 %72, 1
  %74 = icmp ne i32 %73, 0
  br i1 %74, label %75, label %79

75:                                               ; preds = %70
  %76 = load i32, ptr %11, align 4
  %77 = load i32, ptr %10, align 4
  %78 = sub i32 %76, %77
  store i32 %78, ptr %5, align 4
  store i32 1, ptr %19, align 4
  br label %119

79:                                               ; preds = %70, %58
  %80 = load i8, ptr %16, align 1
  %81 = zext i8 %80 to i32
  %82 = and i32 %81, 1
  %83 = icmp ne i32 %82, 0
  br i1 %83, label %115, label %84

84:                                               ; preds = %79
  %85 = load i16, ptr %15, align 2
  %86 = zext i16 %85 to i32
  %87 = and i32 %86, 8192
  %88 = icmp ne i32 %87, 0
  %89 = select i1 %88, i32 128, i32 8
  store i32 %89, ptr %14, align 4
  %90 = load i32, ptr %14, align 4
  %91 = icmp eq i32 %90, 8
  br i1 %91, label %92, label %98

92:                                               ; preds = %84
  %93 = load i8, ptr %16, align 1
  %94 = zext i8 %93 to i32
  %95 = and i32 %94, 16
  %96 = icmp ne i32 %95, 0
  %97 = zext i1 %96 to i8
  store i8 %97, ptr %17, align 1
  br label %107

98:                                               ; preds = %84
  %99 = load ptr, ptr %7, align 8
  %100 = load i32, ptr %18, align 4
  %101 = add i32 %100, 3
  %102 = call zeroext i8 @tvb_get_uint8(ptr noundef %99, i32 noundef %101)
  %103 = zext i8 %102 to i32
  %104 = and i32 %103, 1
  %105 = icmp ne i32 %104, 0
  %106 = zext i1 %105 to i8
  store i8 %106, ptr %17, align 1
  br label %107

107:                                              ; preds = %98, %92
  %108 = load i8, ptr %17, align 1, !range !6, !noundef !7
  %109 = trunc i8 %108 to i1
  br i1 %109, label %114, label %110

110:                                              ; preds = %107
  %111 = load i32, ptr %11, align 4
  %112 = load i32, ptr %10, align 4
  %113 = sub i32 %111, %112
  store i32 %113, ptr %5, align 4
  store i32 1, ptr %19, align 4
  br label %119

114:                                              ; preds = %107
  br label %115

115:                                              ; preds = %114, %79
  %116 = load i32, ptr %11, align 4
  store i32 %116, ptr %8, align 4
  %117 = load i32, ptr %11, align 4
  %118 = add i32 %117, 7
  store i32 %118, ptr %11, align 4
  store i32 0, ptr %19, align 4
  br label %119

119:                                              ; preds = %115, %110, %75, %54, %36
  call void @llvm.lifetime.end.p0(i64 4, ptr %18) #3
  call void @llvm.lifetime.end.p0(i64 1, ptr %17) #3
  call void @llvm.lifetime.end.p0(i64 1, ptr %16) #3
  call void @llvm.lifetime.end.p0(i64 2, ptr %15) #3
  call void @llvm.lifetime.end.p0(i64 4, ptr %14) #3
  call void @llvm.lifetime.end.p0(i64 2, ptr %13) #3
  %120 = load i32, ptr %19, align 4
  switch i32 %120, label %128 [
    i32 0, label %121
  ]

121:                                              ; preds = %119
  br label %24, !llvm.loop !8

122:                                              ; preds = %24
  %123 = load ptr, ptr %6, align 8
  %124 = getelementptr inbounds nuw %struct._packet_info, ptr %123, i32 0, i32 34
  store i32 268435455, ptr %124, align 8
  %125 = load i32, ptr %11, align 4
  %126 = load i32, ptr %10, align 4
  %127 = sub i32 %125, %126
  store i32 %127, ptr %5, align 4
  store i32 1, ptr %19, align 4
  br label %128

128:                                              ; preds = %122, %119
  call void @llvm.lifetime.end.p0(i64 4, ptr %12) #3
  call void @llvm.lifetime.end.p0(i64 4, ptr %11) #3
  call void @llvm.lifetime.end.p0(i64 4, ptr %10) #3
  %129 = load i32, ptr %5, align 4
  ret i32 %129
}