; Function Attrs: null_pointer_is_valid sspstrong uwtable
define internal i32 @get_xot_pdu_len_mult(ptr noundef writeonly captures(none) %0, ptr noundef %1, i32 noundef %2, ptr readnone captures(none) %3) #0 {
  %5 = tail call i32 @tvb_captured_length_remaining(ptr noundef %1, i32 noundef %2)
  %6 = icmp sgt i32 %5, 0
  br i1 %6, label %.lr.ph, label %._crit_edge

.lr.ph:                                           ; preds = %4, %37
  %7 = phi i32 [ %38, %37 ], [ %5, %4 ]
  %.04457 = phi i32 [ %20, %37 ], [ %2, %4 ]
  %8 = add i32 %.04457, 4
  %9 = add i32 %.04457, 7
  %10 = icmp samesign ult i32 %7, 4
  br i1 %10, label %.thread, label %11

11:                                               ; preds = %.lr.ph
  %12 = tail call i32 @tvb_captured_length_remaining(ptr noundef %1, i32 noundef %.04457)
  %13 = icmp slt i32 %12, 4
  br i1 %13, label %get_xot_pdu_len.exit, label %14

14:                                               ; preds = %11
  %15 = add i32 %.04457, 2
  %16 = tail call zeroext i16 @tvb_get_ntohs(ptr noundef %1, i32 noundef %15)
  %17 = zext i16 %16 to i32
  %18 = add nuw nsw i32 %17, 4
  br label %get_xot_pdu_len.exit

get_xot_pdu_len.exit:                             ; preds = %11, %14
  %.0.i = phi i32 [ %18, %14 ], [ %12, %11 ]
  %19 = and i32 %.0.i, 65535
  %20 = add i32 %19, %.04457
  %21 = icmp samesign ult i32 %7, %19
  br i1 %21, label %.thread, label %22

22:                                               ; preds = %get_xot_pdu_len.exit
  %23 = tail call zeroext i16 @tvb_get_ntohs(ptr noundef %1, i32 noundef %8)
  %24 = add i32 %.04457, 6
  %25 = tail call zeroext i8 @tvb_get_uint8(ptr noundef %1, i32 noundef %24)
  %26 = icmp ne i32 %.04457, %2
  %27 = and i8 %25, 1
  %.not = icmp eq i8 %27, 0
  %or.cond = select i1 %26, i1 true, i1 %.not
  br i1 %or.cond, label %28, label %.thread

28:                                               ; preds = %22
  br i1 %.not, label %29, label %37

29:                                               ; preds = %28
  %30 = and i16 %23, 8192
  %.not51 = icmp eq i16 %30, 0
  br i1 %.not51, label %31, label %33

31:                                               ; preds = %29
  %32 = lshr i8 %25, 4
  br label %35

33:                                               ; preds = %29
  %34 = tail call zeroext i8 @tvb_get_uint8(ptr noundef %1, i32 noundef %9)
  br label %35

35:                                               ; preds = %33, %31
  %.043.in = phi i8 [ %32, %31 ], [ %34, %33 ]
  %36 = trunc i8 %.043.in to i1
  br i1 %36, label %37, label %.thread

37:                                               ; preds = %28, %35
  %38 = tail call i32 @tvb_captured_length_remaining(ptr noundef %1, i32 noundef %20)
  %39 = icmp sgt i32 %38, 0
  br i1 %39, label %.lr.ph, label %._crit_edge, !llvm.loop !8

._crit_edge:                                      ; preds = %37, %4
  %.044.lcssa = phi i32 [ %2, %4 ], [ %20, %37 ]
  %.046 = add i32 %.044.lcssa, 7
  %40 = getelementptr inbounds nuw i8, ptr %0, i64 336
  store i32 268435455, ptr %40, align 8
  br label %.thread

.thread:                                          ; preds = %35, %22, %get_xot_pdu_len.exit, %.lr.ph, %._crit_edge
  %.046.pn = phi i32 [ %.046, %._crit_edge ], [ %20, %35 ], [ %20, %22 ], [ %20, %get_xot_pdu_len.exit ], [ %9, %.lr.ph ]
  %.2 = sub i32 %.046.pn, %2
  ret i32 %.2
}